; Function Attrs: nounwind uwtable
define noalias nonnull ptr @l___private_Lake_Build_Trace_0__Lake_reprHash____x40_Lake_Build_Trace___hyg_614_(i64 noundef %0, ptr readnone captures(none) %1) local_unnamed_addr #0 {
  %3 = icmp sgt i64 %0, -1
  br i1 %3, label %4, label %8, !prof !13

4:                                                ; preds = %2
  %5 = shl nuw i64 %0, 1
  %6 = or disjoint i64 %5, 1
  %7 = inttoptr i64 %6 to ptr
  br label %lean_uint64_to_nat.exit

8:                                                ; preds = %2
  %9 = tail call ptr @lean_big_uint64_to_nat(i64 noundef %0) #4
  br label %lean_uint64_to_nat.exit

lean_uint64_to_nat.exit:                          ; preds = %4, %8
  %.0.i = phi ptr [ %7, %4 ], [ %9, %8 ]
  %10 = tail call ptr @l___private_Init_Data_Repr_0__Nat_reprFast(ptr noundef %.0.i) #4
  tail call void @lean_inc_heartbeat() #4
  %11 = tail call noalias ptr @mi_malloc_small(i64 noundef 16) #4
  %12 = icmp eq ptr %11, null
  br i1 %12, label %13, label %lean_alloc_ctor.exit

13:                                               ; preds = %lean_uint64_to_nat.exit
  tail call void @lean_internal_panic_out_of_memory() #5
  unreachable

lean_alloc_ctor.exit:                             ; preds = %lean_uint64_to_nat.exit
  %14 = getelementptr inbounds nuw i8, ptr %11, i64 4
  store i32 1, ptr %11, align 4, !tbaa !4
  store i32 50397200, ptr %14, align 4
  %15 = getelementptr inbounds nuw i8, ptr %11, i64 8
  store ptr %10, ptr %15, align 8, !tbaa !9
  %16 = load ptr, ptr @l___private_Lake_Build_Trace_0__Lake_reprHash____x40_Lake_Build_Trace___hyg_614____closed__7, align 8, !tbaa !9
  tail call void @lean_inc_heartbeat() #4
  %17 = tail call noalias ptr @mi_malloc_small(i64 noundef 24) #4
  %18 = icmp eq ptr %17, null
  br i1 %18, label %19, label %lean_alloc_ctor.exit32

19:                                               ; preds = %lean_alloc_ctor.exit
  tail call void @lean_internal_panic_out_of_memory() #5
  unreachable

lean_alloc_ctor.exit32:                           ; preds = %lean_alloc_ctor.exit
  %20 = getelementptr inbounds nuw i8, ptr %17, i64 4
  store i32 1, ptr %17, align 4, !tbaa !4
  store i32 67239960, ptr %20, align 4
  %21 = getelementptr inbounds nuw i8, ptr %17, i64 8
  store ptr %16, ptr %21, align 8, !tbaa !9
  %22 = getelementptr inbounds nuw i8, ptr %17, i64 16
  store ptr %11, ptr %22, align 8, !tbaa !9
  tail call void @lean_inc_heartbeat() #4
  %23 = tail call noalias ptr @mi_malloc_small(i64 noundef 24) #4
  %24 = icmp eq ptr %23, null
  br i1 %24, label %25, label %lean_alloc_ctor.exit33

25:                                               ; preds = %lean_alloc_ctor.exit32
  tail call void @lean_internal_panic_out_of_memory() #5
  unreachable

lean_alloc_ctor.exit33:                           ; preds = %lean_alloc_ctor.exit32
  %26 = getelementptr inbounds nuw i8, ptr %23, i64 4
  %27 = getelementptr inbounds nuw i8, ptr %23, i64 16
  store i64 0, ptr %27, align 8, !tbaa !15
  store i32 1, ptr %23, align 4, !tbaa !4
  store i32 100728856, ptr %26, align 4
  %28 = getelementptr inbounds nuw i8, ptr %23, i64 8
  store ptr %17, ptr %28, align 8, !tbaa !9
  %29 = load ptr, ptr @l___private_Lake_Build_Trace_0__Lake_reprHash____x40_Lake_Build_Trace___hyg_614____closed__6, align 8, !tbaa !9
  tail call void @lean_inc_heartbeat() #4
  %30 = tail call noalias ptr @mi_malloc_small(i64 noundef 24) #4
  %31 = icmp eq ptr %30, null
  br i1 %31, label %32, label %lean_alloc_ctor.exit34

32:                                               ; preds = %lean_alloc_ctor.exit33
  tail call void @lean_internal_panic_out_of_memory() #5
  unreachable

lean_alloc_ctor.exit34:                           ; preds = %lean_alloc_ctor.exit33
  %33 = getelementptr inbounds nuw i8, ptr %30, i64 4
  store i32 1, ptr %30, align 4, !tbaa !4
  store i32 84017176, ptr %33, align 4
  %34 = getelementptr inbounds nuw i8, ptr %30, i64 8
  store ptr %29, ptr %34, align 8, !tbaa !9
  %35 = getelementptr inbounds nuw i8, ptr %30, i64 16
  store ptr %23, ptr %35, align 8, !tbaa !9
  %36 = load ptr, ptr @l___private_Lake_Build_Trace_0__Lake_reprHash____x40_Lake_Build_Trace___hyg_614____closed__11, align 8, !tbaa !9
  tail call void @lean_inc_heartbeat() #4
  %37 = tail call noalias ptr @mi_malloc_small(i64 noundef 24) #4
  %38 = icmp eq ptr %37, null
  br i1 %38, label %39, label %lean_alloc_ctor.exit35

39:                                               ; preds = %lean_alloc_ctor.exit34
  tail call void @lean_internal_panic_out_of_memory() #5
  unreachable

lean_alloc_ctor.exit35:                           ; preds = %lean_alloc_ctor.exit34
  %40 = getelementptr inbounds nuw i8, ptr %37, i64 4
  store i32 1, ptr %37, align 4, !tbaa !4
  store i32 84017176, ptr %40, align 4
  %41 = getelementptr inbounds nuw i8, ptr %37, i64 8
  store ptr %36, ptr %41, align 8, !tbaa !9
  %42 = getelementptr inbounds nuw i8, ptr %37, i64 16
  store ptr %30, ptr %42, align 8, !tbaa !9
  %43 = load ptr, ptr @l___private_Lake_Build_Trace_0__Lake_reprHash____x40_Lake_Build_Trace___hyg_614____closed__13, align 8, !tbaa !9
  tail call void @lean_inc_heartbeat() #4
  %44 = tail call noalias ptr @mi_malloc_small(i64 noundef 24) #4
  %45 = icmp eq ptr %44, null
  br i1 %45, label %46, label %lean_alloc_ctor.exit36

46:                                               ; preds = %lean_alloc_ctor.exit35
  tail call void @lean_internal_panic_out_of_memory() #5
  unreachable

lean_alloc_ctor.exit36:                           ; preds = %lean_alloc_ctor.exit35
  %47 = getelementptr inbounds nuw i8, ptr %44, i64 4
  store i32 1, ptr %44, align 4, !tbaa !4
  store i32 84017176, ptr %47, align 4
  %48 = getelementptr inbounds nuw i8, ptr %44, i64 8
  store ptr %37, ptr %48, align 8, !tbaa !9
  %49 = getelementptr inbounds nuw i8, ptr %44, i64 16
  store ptr %43, ptr %49, align 8, !tbaa !9
  %50 = load ptr, ptr @l___private_Lake_Build_Trace_0__Lake_reprHash____x40_Lake_Build_Trace___hyg_614____closed__10, align 8, !tbaa !9
  tail call void @lean_inc_heartbeat() #4
  %51 = tail call noalias ptr @mi_malloc_small(i64 noundef 24) #4
  %52 = icmp eq ptr %51, null
  br i1 %52, label %53, label %lean_alloc_ctor.exit37

53:                                               ; preds = %lean_alloc_ctor.exit36
  tail call void @lean_internal_panic_out_of_memory() #5
  unreachable

lean_alloc_ctor.exit37:                           ; preds = %lean_alloc_ctor.exit36
  %54 = getelementptr inbounds nuw i8, ptr %51, i64 4
  store i32 1, ptr %51, align 4, !tbaa !4
  store i32 67239960, ptr %54, align 4
  %55 = getelementptr inbounds nuw i8, ptr %51, i64 8
  store ptr %50, ptr %55, align 8, !tbaa !9
  %56 = getelementptr inbounds nuw i8, ptr %51, i64 16
  store ptr %44, ptr %56, align 8, !tbaa !9
  tail call void @lean_inc_heartbeat() #4
  %57 = tail call noalias ptr @mi_malloc_small(i64 noundef 24) #4
  %58 = icmp eq ptr %57, null
  br i1 %58, label %59, label %lean_alloc_ctor.exit39

59:                                               ; preds = %lean_alloc_ctor.exit37
  tail call void @lean_internal_panic_out_of_memory() #5
  unreachable

lean_alloc_ctor.exit39:                           ; preds = %lean_alloc_ctor.exit37
  %60 = getelementptr inbounds nuw i8, ptr %57, i64 4
  %61 = getelementptr inbounds nuw i8, ptr %57, i64 16
  store i64 0, ptr %61, align 8, !tbaa !15
  store i32 1, ptr %57, align 4, !tbaa !4
  store i32 100728856, ptr %60, align 4
  %62 = getelementptr inbounds nuw i8, ptr %57, i64 8
  store ptr %51, ptr %62, align 8, !tbaa !9
  ret ptr %57
}